target datalayout = "e-m:e-p270:32:32-p271:32:32-p272:64:64-i64:64-i128:128-f80:128-n8:16:32:64-S128"
target triple = "x86_64-pc-linux-gnu"

@vm_created = hidden global i32 0, align 4

; Function Attrs: mustprogress nounwind uwtable
define hidden i32 @jni_AttachCurrentThread(ptr noundef %0, ptr noundef %1, ptr noundef %2) #1 {
  %4 = alloca i32, align 4
  %5 = alloca ptr, align 8
  %6 = alloca ptr, align 8
  %7 = alloca ptr, align 8
  %8 = alloca i32, align 4
  store ptr %0, ptr %5, align 8
  store ptr %1, ptr %6, align 8
  store ptr %2, ptr %7, align 8
  br label %9

9:                                                ; preds = %3
  %10 = load ptr, ptr %5, align 8
  %11 = load ptr, ptr %6, align 8
  %12 = load ptr, ptr %7, align 8
  call void asm sideeffect ".altmacro\0A.macro _SDT_SIGN x\0A.pushsection .note.stapsdt,\22\22,\22note\22\0A.iflt \\x\0A.ascii \22-\22\0A.endif\0A.popsection\0A.endm\0A.macro _SDT_SIZE_ x\0A.pushsection .note.stapsdt,\22\22,\22note\22\0A.ascii \22\\x\22\0A.popsection\0A.endm\0A.macro _SDT_SIZE x\0A_SDT_SIZE_ %((-(-\\x*((-\\x>0)-(-\\x<0))))>>8)\0A.endm\0A.macro _SDT_TYPE_ x\0A.pushsection .note.stapsdt,\22\22,\22note\22\0A.ifc 8,\\x\0A.ascii \22f\22\0A.endif\0A.ascii \22@\22\0A.popsection\0A.endm\0A.macro _SDT_TYPE x\0A_SDT_TYPE_ %((\\x)&(0xff))\0A.endm\0A990: nop\0A.pushsection .note.stapsdt,\22?\22,\22note\22\0A.balign 4\0A.4byte 992f-991f,994f-993f,3\0A991: .asciz \22stapsdt\22\0A992: .balign 4\0A993: .8byte 990b\0A.8byte _.stapsdt.base\0A.8byte 0\0A.asciz \22hotspot_jni\22\0A.asciz \22AttachCurrentThread__entry\22\0A_SDT_SIGN ${0:n}\0A_SDT_SIZE ${0:n}\0A_SDT_TYPE ${0:n}\0A.ascii \22$1\22\0A.ascii \22\\x20\22\0A_SDT_SIGN ${2:n}\0A_SDT_SIZE ${2:n}\0A_SDT_TYPE ${2:n}\0A.ascii \22$3\22\0A.ascii \22\\x20\22\0A_SDT_SIGN ${4:n}\0A_SDT_SIZE ${4:n}\0A_SDT_TYPE ${4:n}\0A.ascii \22$5\22\0A.ascii \22\\x00\22\0A.purgem _SDT_SIGN\0A.purgem _SDT_SIZE_\0A.purgem _SDT_SIZE\0A.purgem _SDT_TYPE_\0A.purgem _SDT_TYPE\0A994: .balign 4\0A.popsection\0A", "n,norfxy,n,norfxy,n,norfxy,~{dirflag},~{fpsr},~{flags}"(i32 -2053, ptr %10, i32 -2053, ptr %11, i32 -2053, ptr %12) #10, !srcloc !950
  call void asm sideeffect ".ifndef _.stapsdt.base\0A.pushsection .stapsdt.base,\22aG\22,\22progbits\22,.stapsdt.base,comdat\0A.weak _.stapsdt.base\0A.hidden _.stapsdt.base\0A_.stapsdt.base: .space 1\0A.size _.stapsdt.base,1\0A.popsection\0A.endif\0A", "~{dirflag},~{fpsr},~{flags}"() #10, !srcloc !951
  br label %13

13:                                               ; preds = %9
  %14 = load volatile i32, ptr @vm_created, align 4
  %15 = icmp eq i32 %14, 0
  br i1 %15, label %16, label %19

16:                                               ; preds = %13
  br label %17

17:                                               ; preds = %16
  call void asm sideeffect ".altmacro\0A.macro _SDT_SIGN x\0A.pushsection .note.stapsdt,\22\22,\22note\22\0A.iflt \\x\0A.ascii \22-\22\0A.endif\0A.popsection\0A.endm\0A.macro _SDT_SIZE_ x\0A.pushsection .note.stapsdt,\22\22,\22note\22\0A.ascii \22\\x\22\0A.popsection\0A.endm\0A.macro _SDT_SIZE x\0A_SDT_SIZE_ %((-(-\\x*((-\\x>0)-(-\\x<0))))>>8)\0A.endm\0A.macro _SDT_TYPE_ x\0A.pushsection .note.stapsdt,\22\22,\22note\22\0A.ifc 8,\\x\0A.ascii \22f\22\0A.endif\0A.ascii \22@\22\0A.popsection\0A.endm\0A.macro _SDT_TYPE x\0A_SDT_TYPE_ %((\\x)&(0xff))\0A.endm\0A990: nop\0A.pushsection .note.stapsdt,\22?\22,\22note\22\0A.balign 4\0A.4byte 992f-991f,994f-993f,3\0A991: .asciz \22stapsdt\22\0A992: .balign 4\0A993: .8byte 990b\0A.8byte _.stapsdt.base\0A.8byte 0\0A.asciz \22hotspot_jni\22\0A.asciz \22AttachCurrentThread__return\22\0A_SDT_SIGN ${0:n}\0A_SDT_SIZE ${0:n}\0A_SDT_TYPE ${0:n}\0A.ascii \22$1\22\0A.ascii \22\\x00\22\0A.purgem _SDT_SIGN\0A.purgem _SDT_SIZE_\0A.purgem _SDT_SIZE\0A.purgem _SDT_TYPE_\0A.purgem _SDT_TYPE\0A994: .balign 4\0A.popsection\0A", "n,norfxy,~{dirflag},~{fpsr},~{flags}"(i32 -1025, i32 -1) #10, !srcloc !952
  call void asm sideeffect ".ifndef _.stapsdt.base\0A.pushsection .stapsdt.base,\22aG\22,\22progbits\22,.stapsdt.base,comdat\0A.weak _.stapsdt.base\0A.hidden _.stapsdt.base\0A_.stapsdt.base: .space 1\0A.size _.stapsdt.base,1\0A.popsection\0A.endif\0A", "~{dirflag},~{fpsr},~{flags}"() #10, !srcloc !953
  br label %18

18:                                               ; preds = %17
  store i32 -1, ptr %4, align 4
  br label %28

19:                                               ; preds = %13
  %20 = load ptr, ptr %5, align 8
  %21 = load ptr, ptr %6, align 8
  %22 = load ptr, ptr %7, align 8
  %23 = call noundef i32 @_ZL21attach_current_threadP7JavaVM_PPvS1_b(ptr noundef %20, ptr noundef %21, ptr noundef %22, i1 noundef zeroext false)
  store i32 %23, ptr %8, align 4
  br label %24

24:                                               ; preds = %19
  %25 = load i32, ptr %8, align 4
  call void asm sideeffect ".altmacro\0A.macro _SDT_SIGN x\0A.pushsection .note.stapsdt,\22\22,\22note\22\0A.iflt \\x\0A.ascii \22-\22\0A.endif\0A.popsection\0A.endm\0A.macro _SDT_SIZE_ x\0A.pushsection .note.stapsdt,\22\22,\22note\22\0A.ascii \22\\x\22\0A.popsection\0A.endm\0A.macro _SDT_SIZE x\0A_SDT_SIZE_ %((-(-\\x*((-\\x>0)-(-\\x<0))))>>8)\0A.endm\0A.macro _SDT_TYPE_ x\0A.pushsection .note.stapsdt,\22\22,\22note\22\0A.ifc 8,\\x\0A.ascii \22f\22\0A.endif\0A.ascii \22@\22\0A.popsection\0A.endm\0A.macro _SDT_TYPE x\0A_SDT_TYPE_ %((\\x)&(0xff))\0A.endm\0A990: nop\0A.pushsection .note.stapsdt,\22?\22,\22note\22\0A.balign 4\0A.4byte 992f-991f,994f-993f,3\0A991: .asciz \22stapsdt\22\0A992: .balign 4\0A993: .8byte 990b\0A.8byte _.stapsdt.base\0A.8byte 0\0A.asciz \22hotspot_jni\22\0A.asciz \22AttachCurrentThread__return\22\0A_SDT_SIGN ${0:n}\0A_SDT_SIZE ${0:n}\0A_SDT_TYPE ${0:n}\0A.ascii \22$1\22\0A.ascii \22\\x00\22\0A.purgem _SDT_SIGN\0A.purgem _SDT_SIZE_\0A.purgem _SDT_SIZE\0A.purgem _SDT_TYPE_\0A.purgem _SDT_TYPE\0A994: .balign 4\0A.popsection\0A", "n,norfxy,~{dirflag},~{fpsr},~{flags}"(i32 1025, i32 %25) #10, !srcloc !954
  call void asm sideeffect ".ifndef _.stapsdt.base\0A.pushsection .stapsdt.base,\22aG\22,\22progbits\22,.stapsdt.base,comdat\0A.weak _.stapsdt.base\0A.hidden _.stapsdt.base\0A_.stapsdt.base: .space 1\0A.size _.stapsdt.base,1\0A.popsection\0A.endif\0A", "~{dirflag},~{fpsr},~{flags}"() #10, !srcloc !955
  br label %26

26:                                               ; preds = %24
  %27 = load i32, ptr %8, align 4
  store i32 %27, ptr %4, align 4
  br label %28

28:                                               ; preds = %26, %18
  %29 = load i32, ptr %4, align 4
  ret i32 %29
}